; Function Attrs: mustprogress nounwind uwtable
define internal void @"_ZN4llvm12function_refIFvRNS_3vfs10FileSystemEEE11callback_fnIZNK5clang12HeaderSearch23collectVFSUsageAndClearEvE3$_0EEvlS3_"(i64 noundef %0, ptr noundef nonnull align 8 dereferenceable(12) %1) #0 align 2 {
  %3 = load ptr, ptr %1, align 8
  %4 = getelementptr inbounds i8, ptr %3, i64 24
  %5 = load ptr, ptr %4, align 8
  %6 = tail call noundef zeroext i1 %5(ptr noundef nonnull align 8 dereferenceable(8) %1, ptr noundef nonnull @_ZN4llvm3vfs21RedirectingFileSystem2IDE) #22
  br i1 %6, label %7, label %"_ZZNK5clang12HeaderSearch23collectVFSUsageAndClearEvENK3$_0clERN4llvm3vfs10FileSystemE.exit"

7:                                                ; preds = %2
  %8 = inttoptr i64 %0 to ptr
  %9 = load ptr, ptr %8, align 8
  %10 = getelementptr inbounds nuw i8, ptr %1, i64 115
  %11 = load i8, ptr %10, align 1
  %12 = trunc i8 %11 to i1
  %13 = getelementptr inbounds nuw i8, ptr %9, i64 16
  %14 = load ptr, ptr %13, align 8
  %15 = getelementptr inbounds nuw i8, ptr %9, i64 32
  %16 = load ptr, ptr %15, align 8
  %.not.i.i = icmp eq ptr %14, %16
  %.sroa.2.0..sroa_idx.i.i.i = getelementptr inbounds i8, ptr %9, i64 24
  %.sroa.2.0.copyload.i11.i.i = load i32, ptr %.sroa.2.0..sroa_idx.i.i.i, align 8
  br i1 %.not.i.i, label %31, label %17

17:                                               ; preds = %7
  %18 = add i32 %.sroa.2.0.copyload.i11.i.i, 1
  store i32 %18, ptr %.sroa.2.0..sroa_idx.i.i.i, align 8
  %19 = icmp eq i32 %.sroa.2.0.copyload.i11.i.i, 63
  br i1 %19, label %20, label %_ZNSt13_Bit_iteratorppEi.exit.i.i

20:                                               ; preds = %17
  store i32 0, ptr %.sroa.2.0..sroa_idx.i.i.i, align 8
  %21 = getelementptr inbounds i8, ptr %14, i64 8
  store ptr %21, ptr %13, align 8
  br label %_ZNSt13_Bit_iteratorppEi.exit.i.i

_ZNSt13_Bit_iteratorppEi.exit.i.i:                ; preds = %20, %17
  %22 = zext nneg i32 %.sroa.2.0.copyload.i11.i.i to i64
  %23 = shl nuw i64 1, %22
  br i1 %12, label %24, label %27

24:                                               ; preds = %_ZNSt13_Bit_iteratorppEi.exit.i.i
  %25 = load i64, ptr %14, align 8
  %26 = or i64 %25, %23
  store i64 %26, ptr %14, align 8
  br label %_ZNSt6vectorIbSaIbEE9push_backEb.exit.i

27:                                               ; preds = %_ZNSt13_Bit_iteratorppEi.exit.i.i
  %28 = xor i64 %23, -1
  %29 = load i64, ptr %14, align 8
  %30 = and i64 %29, %28
  store i64 %30, ptr %14, align 8
  br label %_ZNSt6vectorIbSaIbEE9push_backEb.exit.i

31:                                               ; preds = %7
  tail call void @_ZNSt6vectorIbSaIbEE13_M_insert_auxESt13_Bit_iteratorb(ptr noundef nonnull align 8 dereferenceable(40) %9, ptr %14, i32 %.sroa.2.0.copyload.i11.i.i, i1 noundef zeroext %12)
  br label %_ZNSt6vectorIbSaIbEE9push_backEb.exit.i

_ZNSt6vectorIbSaIbEE9push_backEb.exit.i:          ; preds = %31, %27, %24
  store i8 0, ptr %10, align 1
  br label %"_ZZNK5clang12HeaderSearch23collectVFSUsageAndClearEvENK3$_0clERN4llvm3vfs10FileSystemE.exit"

"_ZZNK5clang12HeaderSearch23collectVFSUsageAndClearEvENK3$_0clERN4llvm3vfs10FileSystemE.exit": ; preds = %2, %_ZNSt6vectorIbSaIbEE9push_backEb.exit.i
  ret void
}